; ModuleID = '17/79.c'
source_filename = "17/79.c"
target datalayout = "e-m:e-p270:32:32-p271:32:32-p272:64:64-i64:64-f80:128-n8:16:32:64-S128"
target triple = "x86_64-pc-linux-gnu"

@.str = private unnamed_addr constant [3 x i8] c"%s\00", align 1
@.str.1 = private unnamed_addr constant [7 x i8] c"%s\0A%s\0A\00", align 1

; Function Attrs: noinline nounwind uwtable
define dso_local i32 @main() #0 {
  %1 = alloca i32, align 4
  %2 = alloca i32, align 4
  %3 = alloca i32, align 4
  %4 = alloca i32, align 4
  %5 = alloca i32, align 4
  %6 = alloca i32, align 4
  %7 = alloca [110 x i8], align 16
  %8 = alloca [110 x i8], align 16
  %9 = alloca [110 x i8], align 16
  %10 = alloca i32, align 4
  store i32 0, i32* %1, align 4
  store i32 0, i32* %5, align 4
  br label %11

11:                                               ; preds = %129, %0
  %12 = getelementptr inbounds [110 x i8], [110 x i8]* %7, i64 0, i64 0
  %13 = call i32 (i8*, ...) @__isoc99_scanf(i8* getelementptr inbounds ([3 x i8], [3 x i8]* @.str, i64 0, i64 0), i8* %12)
  %14 = getelementptr inbounds [110 x i8], [110 x i8]* %7, i64 0, i64 0
  %15 = call i64 @strlen(i8* %14) #4
  %16 = trunc i64 %15 to i32
  store i32 %16, i32* %10, align 4
  %17 = getelementptr inbounds [110 x i8], [110 x i8]* %7, i64 0, i64 0
  %18 = getelementptr inbounds [110 x i8], [110 x i8]* %8, i64 0, i64 0
  %19 = call i32 @strcmp(i8* %17, i8* %18) #4
  %20 = icmp eq i32 %19, 0
  br i1 %20, label %21, label %22

21:                                               ; preds = %11
  br label %132

22:                                               ; preds = %11
  %23 = getelementptr inbounds [110 x i8], [110 x i8]* %8, i64 0, i64 0
  %24 = getelementptr inbounds [110 x i8], [110 x i8]* %7, i64 0, i64 0
  %25 = call i8* @strcpy(i8* %23, i8* %24) #5
  store i32 0, i32* %3, align 4
  br label %26

26:                                               ; preds = %34, %22
  %27 = load i32, i32* %3, align 4
  %28 = load i32, i32* %10, align 4
  %29 = icmp slt i32 %27, %28
  br i1 %29, label %30, label %37

30:                                               ; preds = %26
  %31 = load i32, i32* %3, align 4
  %32 = sext i32 %31 to i64
  %33 = getelementptr inbounds [110 x i8], [110 x i8]* %9, i64 0, i64 %32
  store i8 32, i8* %33, align 1
  br label %34

34:                                               ; preds = %30
  %35 = load i32, i32* %3, align 4
  %36 = add nsw i32 %35, 1
  store i32 %36, i32* %3, align 4
  br label %26

37:                                               ; preds = %26
  %38 = load i32, i32* %10, align 4
  %39 = sext i32 %38 to i64
  %40 = getelementptr inbounds [110 x i8], [110 x i8]* %9, i64 0, i64 %39
  store i8 0, i8* %40, align 1
  store i32 0, i32* %6, align 4
  br label %41

41:                                               ; preds = %87, %37
  %42 = load i32, i32* %6, align 4
  %43 = load i32, i32* %10, align 4
  %44 = icmp slt i32 %42, %43
  br i1 %44, label %45, label %90

45:                                               ; preds = %41
  %46 = load i32, i32* %6, align 4
  store i32 %46, i32* %3, align 4
  br label %47

47:                                               ; preds = %83, %45
  %48 = load i32, i32* %3, align 4
  %49 = load i32, i32* %10, align 4
  %50 = icmp slt i32 %48, %49
  br i1 %50, label %51, label %86

51:                                               ; preds = %47
  %52 = load i32, i32* %3, align 4
  %53 = sext i32 %52 to i64
  %54 = getelementptr inbounds [110 x i8], [110 x i8]* %7, i64 0, i64 %53
  %55 = load i8, i8* %54, align 1
  %56 = sext i8 %55 to i32
  %57 = icmp eq i32 %56, 41
  br i1 %57, label %58, label %82

58:                                               ; preds = %51
  %59 = load i32, i32* %3, align 4
  store i32 %59, i32* %4, align 4
  br label %60

60:                                               ; preds = %78, %58
  %61 = load i32, i32* %4, align 4
  %62 = icmp sge i32 %61, 0
  br i1 %62, label %63, label %81

63:                                               ; preds = %60
  %64 = load i32, i32* %4, align 4
  %65 = sext i32 %64 to i64
  %66 = getelementptr inbounds [110 x i8], [110 x i8]* %7, i64 0, i64 %65
  %67 = load i8, i8* %66, align 1
  %68 = sext i8 %67 to i32
  %69 = icmp eq i32 %68, 40
  br i1 %69, label %70, label %77

70:                                               ; preds = %63
  %71 = load i32, i32* %3, align 4
  %72 = sext i32 %71 to i64
  %73 = getelementptr inbounds [110 x i8], [110 x i8]* %7, i64 0, i64 %72
  store i8 32, i8* %73, align 1
  %74 = load i32, i32* %4, align 4
  %75 = sext i32 %74 to i64
  %76 = getelementptr inbounds [110 x i8], [110 x i8]* %7, i64 0, i64 %75
  store i8 32, i8* %76, align 1
  store i32 0, i32* %4, align 4
  store i32 0, i32* %3, align 4
  br label %77

77:                                               ; preds = %70, %63
  br label %78

78:                                               ; preds = %77
  %79 = load i32, i32* %4, align 4
  %80 = add nsw i32 %79, -1
  store i32 %80, i32* %4, align 4
  br label %60

81:                                               ; preds = %60
  br label %82

82:                                               ; preds = %81, %51
  br label %83

83:                                               ; preds = %82
  %84 = load i32, i32* %3, align 4
  %85 = add nsw i32 %84, 1
  store i32 %85, i32* %3, align 4
  br label %47

86:                                               ; preds = %47
  br label %87

87:                                               ; preds = %86
  %88 = load i32, i32* %6, align 4
  %89 = add nsw i32 %88, 1
  store i32 %89, i32* %6, align 4
  br label %41

90:                                               ; preds = %41
  store i32 0, i32* %3, align 4
  br label %91

91:                                               ; preds = %119, %90
  %92 = load i32, i32* %3, align 4
  %93 = load i32, i32* %10, align 4
  %94 = icmp slt i32 %92, %93
  br i1 %94, label %95, label %122

95:                                               ; preds = %91
  %96 = load i32, i32* %3, align 4
  %97 = sext i32 %96 to i64
  %98 = getelementptr inbounds [110 x i8], [110 x i8]* %7, i64 0, i64 %97
  %99 = load i8, i8* %98, align 1
  %100 = sext i8 %99 to i32
  %101 = icmp eq i32 %100, 40
  br i1 %101, label %102, label %106

102:                                              ; preds = %95
  %103 = load i32, i32* %3, align 4
  %104 = sext i32 %103 to i64
  %105 = getelementptr inbounds [110 x i8], [110 x i8]* %9, i64 0, i64 %104
  store i8 36, i8* %105, align 1
  br label %118

106:                                              ; preds = %95
  %107 = load i32, i32* %3, align 4
  %108 = sext i32 %107 to i64
  %109 = getelementptr inbounds [110 x i8], [110 x i8]* %7, i64 0, i64 %108
  %110 = load i8, i8* %109, align 1
  %111 = sext i8 %110 to i32
  %112 = icmp eq i32 %111, 41
  br i1 %112, label %113, label %117

113:                                              ; preds = %106
  %114 = load i32, i32* %3, align 4
  %115 = sext i32 %114 to i64
  %116 = getelementptr inbounds [110 x i8], [110 x i8]* %9, i64 0, i64 %115
  store i8 63, i8* %116, align 1
  br label %117

117:                                              ; preds = %113, %106
  br label %118

118:                                              ; preds = %117, %102
  br label %119

119:                                              ; preds = %118
  %120 = load i32, i32* %3, align 4
  %121 = add nsw i32 %120, 1
  store i32 %121, i32* %3, align 4
  br label %91

122:                                              ; preds = %91
  %123 = getelementptr inbounds [110 x i8], [110 x i8]* %8, i64 0, i64 0
  %124 = getelementptr inbounds [110 x i8], [110 x i8]* %9, i64 0, i64 0
  %125 = call i32 (i8*, ...) @printf(i8* getelementptr inbounds ([7 x i8], [7 x i8]* @.str.1, i64 0, i64 0), i8* %123, i8* %124)
  %126 = getelementptr inbounds [110 x i8], [110 x i8]* %8, i64 0, i64 0
  %127 = getelementptr inbounds [110 x i8], [110 x i8]* %7, i64 0, i64 0
  %128 = call i8* @strcpy(i8* %126, i8* %127) #5
  br label %129

129:                                              ; preds = %122
  %130 = load i32, i32* %5, align 4
  %131 = add nsw i32 %130, 1
  store i32 %131, i32* %5, align 4
  br label %11

132:                                              ; preds = %21
  ret i32 0
}

declare dso_local i32 @__isoc99_scanf(i8*, ...) #1

; Function Attrs: nounwind readonly
declare dso_local i64 @strlen(i8*) #2

; Function Attrs: nounwind readonly
declare dso_local i32 @strcmp(i8*, i8*) #2

; Function Attrs: nounwind
declare dso_local i8* @strcpy(i8*, i8*) #3

declare dso_local i32 @printf(i8*, ...) #1


!llvm.module.flags = !{!0}
!llvm.ident = !{!1}

!0 = !{i32 1, !"wchar_size", i32 4}
!1 = !{!"clang version 10.0.0-4ubuntu1 "}
